#include <math.h>
#include <stdio.h>
#include <stdlib.h>
#include <string.h>

int main()
{
	int a[5][11][11]={0};
	int i,j,k;
	int m,n;
	scanf("%d %d",&m,&n);
	a[0][5][5]=m;
	for(i=0;i<n;i++)
	{
		for(j=1;j<10;j++)
		{
			for(k=1;k<10;k++)
			{
				a[i+1][j][k]=2*a[i][j][k]+a[i][j][k-1]+a[i][j][k+1]+a[i][j-1][k-1]+
				a[i][j-1][k]+a[i][j-1][k+1]+a[i][j+1][k-1]+a[i][j+1][k]+a[i][j+1][k+1];
			}
		}
	}
	for(j=1;j<10;j++)
		{
			for(k=1;k<10;k++)
			{
				if(k==9)
				printf("%d\n",a[i][j][k]);
				else
				printf("%d ",a[i][j][k]);
			
			}
		}
		
} 
