target datalayout = "e-m:e-p270:32:32-p271:32:32-p272:64:64-i64:64-f80:128-n8:16:32:64-S128"
target triple = "x86_64-pc-linux-gnu"

@.str = private unnamed_addr constant [6 x i8] c"%d %d\00", align 1
@.str.1 = private unnamed_addr constant [4 x i8] c"%d\0A\00", align 1
@.str.2 = private unnamed_addr constant [4 x i8] c"%d \00", align 1

; Function Attrs: noinline nounwind uwtable
define dso_local i32 @main() #0 {
  %1 = alloca i32, align 4
  %2 = alloca [5 x [11 x [11 x i32]]], align 16
  %3 = alloca i32, align 4
  %4 = alloca i32, align 4
  %5 = alloca i32, align 4
  %6 = alloca i32, align 4
  %7 = alloca i32, align 4
  store i32 0, i32* %1, align 4
  %8 = bitcast [5 x [11 x [11 x i32]]]* %2 to i8*
  call void @llvm.memset.p0i8.i64(i8* align 16 %8, i8 0, i64 2420, i1 false)
  %9 = call i32 (i8*, ...) @__isoc99_scanf(i8* getelementptr inbounds ([6 x i8], [6 x i8]* @.str, i64 0, i64 0), i32* %6, i32* %7)
  %10 = load i32, i32* %6, align 4
  %11 = getelementptr inbounds [5 x [11 x [11 x i32]]], [5 x [11 x [11 x i32]]]* %2, i64 0, i64 0
  %12 = getelementptr inbounds [11 x [11 x i32]], [11 x [11 x i32]]* %11, i64 0, i64 5
  %13 = getelementptr inbounds [11 x i32], [11 x i32]* %12, i64 0, i64 5
  store i32 %10, i32* %13, align 4
  store i32 0, i32* %3, align 4
  br label %14

14:                                               ; preds = %156, %0
  %15 = load i32, i32* %3, align 4
  %16 = load i32, i32* %7, align 4
  %17 = icmp slt i32 %15, %16
  br i1 %17, label %18, label %159

18:                                               ; preds = %14
  store i32 1, i32* %4, align 4
  br label %19

19:                                               ; preds = %152, %18
  %20 = load i32, i32* %4, align 4
  %21 = icmp slt i32 %20, 10
  br i1 %21, label %22, label %155

22:                                               ; preds = %19
  store i32 1, i32* %5, align 4
  br label %23

23:                                               ; preds = %148, %22
  %24 = load i32, i32* %5, align 4
  %25 = icmp slt i32 %24, 10
  br i1 %25, label %26, label %151

26:                                               ; preds = %23
  %27 = load i32, i32* %3, align 4
  %28 = sext i32 %27 to i64
  %29 = getelementptr inbounds [5 x [11 x [11 x i32]]], [5 x [11 x [11 x i32]]]* %2, i64 0, i64 %28
  %30 = load i32, i32* %4, align 4
  %31 = sext i32 %30 to i64
  %32 = getelementptr inbounds [11 x [11 x i32]], [11 x [11 x i32]]* %29, i64 0, i64 %31
  %33 = load i32, i32* %5, align 4
  %34 = sext i32 %33 to i64
  %35 = getelementptr inbounds [11 x i32], [11 x i32]* %32, i64 0, i64 %34
  %36 = load i32, i32* %35, align 4
  %37 = mul nsw i32 2, %36
  %38 = load i32, i32* %3, align 4
  %39 = sext i32 %38 to i64
  %40 = getelementptr inbounds [5 x [11 x [11 x i32]]], [5 x [11 x [11 x i32]]]* %2, i64 0, i64 %39
  %41 = load i32, i32* %4, align 4
  %42 = sext i32 %41 to i64
  %43 = getelementptr inbounds [11 x [11 x i32]], [11 x [11 x i32]]* %40, i64 0, i64 %42
  %44 = load i32, i32* %5, align 4
  %45 = sub nsw i32 %44, 1
  %46 = sext i32 %45 to i64
  %47 = getelementptr inbounds [11 x i32], [11 x i32]* %43, i64 0, i64 %46
  %48 = load i32, i32* %47, align 4
  %49 = add nsw i32 %37, %48
  %50 = load i32, i32* %3, align 4
  %51 = sext i32 %50 to i64
  %52 = getelementptr inbounds [5 x [11 x [11 x i32]]], [5 x [11 x [11 x i32]]]* %2, i64 0, i64 %51
  %53 = load i32, i32* %4, align 4
  %54 = sext i32 %53 to i64
  %55 = getelementptr inbounds [11 x [11 x i32]], [11 x [11 x i32]]* %52, i64 0, i64 %54
  %56 = load i32, i32* %5, align 4
  %57 = add nsw i32 %56, 1
  %58 = sext i32 %57 to i64
  %59 = getelementptr inbounds [11 x i32], [11 x i32]* %55, i64 0, i64 %58
  %60 = load i32, i32* %59, align 4
  %61 = add nsw i32 %49, %60
  %62 = load i32, i32* %3, align 4
  %63 = sext i32 %62 to i64
  %64 = getelementptr inbounds [5 x [11 x [11 x i32]]], [5 x [11 x [11 x i32]]]* %2, i64 0, i64 %63
  %65 = load i32, i32* %4, align 4
  %66 = sub nsw i32 %65, 1
  %67 = sext i32 %66 to i64
  %68 = getelementptr inbounds [11 x [11 x i32]], [11 x [11 x i32]]* %64, i64 0, i64 %67
  %69 = load i32, i32* %5, align 4
  %70 = sub nsw i32 %69, 1
  %71 = sext i32 %70 to i64
  %72 = getelementptr inbounds [11 x i32], [11 x i32]* %68, i64 0, i64 %71
  %73 = load i32, i32* %72, align 4
  %74 = add nsw i32 %61, %73
  %75 = load i32, i32* %3, align 4
  %76 = sext i32 %75 to i64
  %77 = getelementptr inbounds [5 x [11 x [11 x i32]]], [5 x [11 x [11 x i32]]]* %2, i64 0, i64 %76
  %78 = load i32, i32* %4, align 4
  %79 = sub nsw i32 %78, 1
  %80 = sext i32 %79 to i64
  %81 = getelementptr inbounds [11 x [11 x i32]], [11 x [11 x i32]]* %77, i64 0, i64 %80
  %82 = load i32, i32* %5, align 4
  %83 = sext i32 %82 to i64
  %84 = getelementptr inbounds [11 x i32], [11 x i32]* %81, i64 0, i64 %83
  %85 = load i32, i32* %84, align 4
  %86 = add nsw i32 %74, %85
  %87 = load i32, i32* %3, align 4
  %88 = sext i32 %87 to i64
  %89 = getelementptr inbounds [5 x [11 x [11 x i32]]], [5 x [11 x [11 x i32]]]* %2, i64 0, i64 %88
  %90 = load i32, i32* %4, align 4
  %91 = sub nsw i32 %90, 1
  %92 = sext i32 %91 to i64
  %93 = getelementptr inbounds [11 x [11 x i32]], [11 x [11 x i32]]* %89, i64 0, i64 %92
  %94 = load i32, i32* %5, align 4
  %95 = add nsw i32 %94, 1
  %96 = sext i32 %95 to i64
  %97 = getelementptr inbounds [11 x i32], [11 x i32]* %93, i64 0, i64 %96
  %98 = load i32, i32* %97, align 4
  %99 = add nsw i32 %86, %98
  %100 = load i32, i32* %3, align 4
  %101 = sext i32 %100 to i64
  %102 = getelementptr inbounds [5 x [11 x [11 x i32]]], [5 x [11 x [11 x i32]]]* %2, i64 0, i64 %101
  %103 = load i32, i32* %4, align 4
  %104 = add nsw i32 %103, 1
  %105 = sext i32 %104 to i64
  %106 = getelementptr inbounds [11 x [11 x i32]], [11 x [11 x i32]]* %102, i64 0, i64 %105
  %107 = load i32, i32* %5, align 4
  %108 = sub nsw i32 %107, 1
  %109 = sext i32 %108 to i64
  %110 = getelementptr inbounds [11 x i32], [11 x i32]* %106, i64 0, i64 %109
  %111 = load i32, i32* %110, align 4
  %112 = add nsw i32 %99, %111
  %113 = load i32, i32* %3, align 4
  %114 = sext i32 %113 to i64
  %115 = getelementptr inbounds [5 x [11 x [11 x i32]]], [5 x [11 x [11 x i32]]]* %2, i64 0, i64 %114
  %116 = load i32, i32* %4, align 4
  %117 = add nsw i32 %116, 1
  %118 = sext i32 %117 to i64
  %119 = getelementptr inbounds [11 x [11 x i32]], [11 x [11 x i32]]* %115, i64 0, i64 %118
  %120 = load i32, i32* %5, align 4
  %121 = sext i32 %120 to i64
  %122 = getelementptr inbounds [11 x i32], [11 x i32]* %119, i64 0, i64 %121
  %123 = load i32, i32* %122, align 4
  %124 = add nsw i32 %112, %123
  %125 = load i32, i32* %3, align 4
  %126 = sext i32 %125 to i64
  %127 = getelementptr inbounds [5 x [11 x [11 x i32]]], [5 x [11 x [11 x i32]]]* %2, i64 0, i64 %126
  %128 = load i32, i32* %4, align 4
  %129 = add nsw i32 %128, 1
  %130 = sext i32 %129 to i64
  %131 = getelementptr inbounds [11 x [11 x i32]], [11 x [11 x i32]]* %127, i64 0, i64 %130
  %132 = load i32, i32* %5, align 4
  %133 = add nsw i32 %132, 1
  %134 = sext i32 %133 to i64
  %135 = getelementptr inbounds [11 x i32], [11 x i32]* %131, i64 0, i64 %134
  %136 = load i32, i32* %135, align 4
  %137 = add nsw i32 %124, %136
  %138 = load i32, i32* %3, align 4
  %139 = add nsw i32 %138, 1
  %140 = sext i32 %139 to i64
  %141 = getelementptr inbounds [5 x [11 x [11 x i32]]], [5 x [11 x [11 x i32]]]* %2, i64 0, i64 %140
  %142 = load i32, i32* %4, align 4
  %143 = sext i32 %142 to i64
  %144 = getelementptr inbounds [11 x [11 x i32]], [11 x [11 x i32]]* %141, i64 0, i64 %143
  %145 = load i32, i32* %5, align 4
  %146 = sext i32 %145 to i64
  %147 = getelementptr inbounds [11 x i32], [11 x i32]* %144, i64 0, i64 %146
  store i32 %137, i32* %147, align 4
  br label %148

148:                                              ; preds = %26
  %149 = load i32, i32* %5, align 4
  %150 = add nsw i32 %149, 1
  store i32 %150, i32* %5, align 4
  br label %23

151:                                              ; preds = %23
  br label %152

152:                                              ; preds = %151
  %153 = load i32, i32* %4, align 4
  %154 = add nsw i32 %153, 1
  store i32 %154, i32* %4, align 4
  br label %19

155:                                              ; preds = %19
  br label %156

156:                                              ; preds = %155
  %157 = load i32, i32* %3, align 4
  %158 = add nsw i32 %157, 1
  store i32 %158, i32* %3, align 4
  br label %14

159:                                              ; preds = %14
  store i32 1, i32* %4, align 4
  br label %160

160:                                              ; preds = %199, %159
  %161 = load i32, i32* %4, align 4
  %162 = icmp slt i32 %161, 10
  br i1 %162, label %163, label %202

163:                                              ; preds = %160
  store i32 1, i32* %5, align 4
  br label %164

164:                                              ; preds = %195, %163
  %165 = load i32, i32* %5, align 4
  %166 = icmp slt i32 %165, 10
  br i1 %166, label %167, label %198

167:                                              ; preds = %164
  %168 = load i32, i32* %5, align 4
  %169 = icmp eq i32 %168, 9
  br i1 %169, label %170, label %182

170:                                              ; preds = %167
  %171 = load i32, i32* %3, align 4
  %172 = sext i32 %171 to i64
  %173 = getelementptr inbounds [5 x [11 x [11 x i32]]], [5 x [11 x [11 x i32]]]* %2, i64 0, i64 %172
  %174 = load i32, i32* %4, align 4
  %175 = sext i32 %174 to i64
  %176 = getelementptr inbounds [11 x [11 x i32]], [11 x [11 x i32]]* %173, i64 0, i64 %175
  %177 = load i32, i32* %5, align 4
  %178 = sext i32 %177 to i64
  %179 = getelementptr inbounds [11 x i32], [11 x i32]* %176, i64 0, i64 %178
  %180 = load i32, i32* %179, align 4
  %181 = call i32 (i8*, ...) @printf(i8* getelementptr inbounds ([4 x i8], [4 x i8]* @.str.1, i64 0, i64 0), i32 %180)
  br label %194

182:                                              ; preds = %167
  %183 = load i32, i32* %3, align 4
  %184 = sext i32 %183 to i64
  %185 = getelementptr inbounds [5 x [11 x [11 x i32]]], [5 x [11 x [11 x i32]]]* %2, i64 0, i64 %184
  %186 = load i32, i32* %4, align 4
  %187 = sext i32 %186 to i64
  %188 = getelementptr inbounds [11 x [11 x i32]], [11 x [11 x i32]]* %185, i64 0, i64 %187
  %189 = load i32, i32* %5, align 4
  %190 = sext i32 %189 to i64
  %191 = getelementptr inbounds [11 x i32], [11 x i32]* %188, i64 0, i64 %190
  %192 = load i32, i32* %191, align 4
  %193 = call i32 (i8*, ...) @printf(i8* getelementptr inbounds ([4 x i8], [4 x i8]* @.str.2, i64 0, i64 0), i32 %192)
  br label %194

194:                                              ; preds = %182, %170
  br label %195

195:                                              ; preds = %194
  %196 = load i32, i32* %5, align 4
  %197 = add nsw i32 %196, 1
  store i32 %197, i32* %5, align 4
  br label %164

198:                                              ; preds = %164
  br label %199

199:                                              ; preds = %198
  %200 = load i32, i32* %4, align 4
  %201 = add nsw i32 %200, 1
  store i32 %201, i32* %4, align 4
  br label %160

202:                                              ; preds = %160
  %203 = load i32, i32* %1, align 4
  ret i32 %203
}