; Function Attrs: nofree nounwind sspstrong uwtable
define dso_local i32 @main() local_unnamed_addr #0 {
  %1 = alloca [5 x [11 x [11 x i32]]], align 16
  %2 = alloca i32, align 4
  %3 = alloca i32, align 4
  %4 = bitcast [5 x [11 x [11 x i32]]]* %1 to i8*
  call void @llvm.lifetime.start.p0i8(i64 2420, i8* nonnull %4) #4
  call void @llvm.memset.p0i8.i64(i8* noundef nonnull align 16 dereferenceable(2420) %4, i8 0, i64 2420, i1 false)
  %5 = bitcast i32* %2 to i8*
  call void @llvm.lifetime.start.p0i8(i64 4, i8* nonnull %5) #4
  %6 = bitcast i32* %3 to i8*
  call void @llvm.lifetime.start.p0i8(i64 4, i8* nonnull %6) #4
  %7 = call i32 (i8*, ...) @__isoc99_scanf(i8* getelementptr inbounds ([6 x i8], [6 x i8]* @.str, i64 0, i64 0), i32* nonnull %2, i32* nonnull %3)
  %8 = load i32, i32* %2, align 4, !tbaa !5
  %9 = getelementptr inbounds [5 x [11 x [11 x i32]]], [5 x [11 x [11 x i32]]]* %1, i64 0, i64 0, i64 5, i64 5
  store i32 %8, i32* %9, align 16, !tbaa !5
  %10 = load i32, i32* %3, align 4, !tbaa !5
  %11 = icmp sgt i32 %10, 0
  br i1 %11, label %12, label %27

12:                                               ; preds = %0
  %13 = zext i32 %10 to i64
  br label %14

14:                                               ; preds = %12, %192
  %15 = phi i64 [ 0, %12 ], [ %16, %192 ]
  %16 = add nuw nsw i64 %15, 1
  %17 = getelementptr inbounds [5 x [11 x [11 x i32]]], [5 x [11 x [11 x i32]]]* %1, i64 0, i64 %15, i64 1, i64 5
  %18 = load i32, i32* %17, align 4, !tbaa !5
  %19 = getelementptr inbounds [5 x [11 x [11 x i32]]], [5 x [11 x [11 x i32]]]* %1, i64 0, i64 %15, i64 1, i64 6
  %20 = load i32, i32* %19, align 4, !tbaa !5
  %21 = getelementptr inbounds [5 x [11 x [11 x i32]]], [5 x [11 x [11 x i32]]]* %1, i64 0, i64 %15, i64 0, i64 6
  %22 = load i32, i32* %21, align 4, !tbaa !5
  %23 = getelementptr inbounds [5 x [11 x [11 x i32]]], [5 x [11 x [11 x i32]]]* %1, i64 0, i64 %15, i64 0, i64 5
  %24 = load i32, i32* %23, align 4, !tbaa !5
  br label %29

25:                                               ; preds = %192
  %26 = zext i32 %10 to i64
  br label %27

27:                                               ; preds = %0, %25
  %28 = phi i64 [ %26, %25 ], [ 0, %0 ]
  br label %195

29:                                               ; preds = %14, %29
  %30 = phi i32 [ %24, %14 ], [ %126, %29 ]
  %31 = phi i32 [ %22, %14 ], [ %124, %29 ]
  %32 = phi i32 [ %20, %14 ], [ %121, %29 ]
  %33 = phi i32 [ %18, %14 ], [ %107, %29 ]
  %34 = phi i64 [ 1, %14 ], [ %36, %29 ]
  %35 = add nsw i64 %34, -1
  %36 = add nuw nsw i64 %34, 1
  %37 = getelementptr inbounds [5 x [11 x [11 x i32]]], [5 x [11 x [11 x i32]]]* %1, i64 0, i64 %15, i64 %34, i64 1
  %38 = load i32, i32* %37, align 4, !tbaa !5
  %39 = shl nsw i32 %38, 1
  %40 = getelementptr inbounds [5 x [11 x [11 x i32]]], [5 x [11 x [11 x i32]]]* %1, i64 0, i64 %15, i64 %34, i64 0
  %41 = load i32, i32* %40, align 4, !tbaa !5
  %42 = add nsw i32 %39, %41
  %43 = getelementptr inbounds [5 x [11 x [11 x i32]]], [5 x [11 x [11 x i32]]]* %1, i64 0, i64 %15, i64 %34, i64 2
  %44 = load i32, i32* %43, align 4, !tbaa !5
  %45 = add nsw i32 %42, %44
  %46 = getelementptr inbounds [5 x [11 x [11 x i32]]], [5 x [11 x [11 x i32]]]* %1, i64 0, i64 %15, i64 %35, i64 0
  %47 = load i32, i32* %46, align 4, !tbaa !5
  %48 = add nsw i32 %45, %47
  %49 = getelementptr inbounds [5 x [11 x [11 x i32]]], [5 x [11 x [11 x i32]]]* %1, i64 0, i64 %15, i64 %35, i64 1
  %50 = load i32, i32* %49, align 4, !tbaa !5
  %51 = add nsw i32 %48, %50
  %52 = getelementptr inbounds [5 x [11 x [11 x i32]]], [5 x [11 x [11 x i32]]]* %1, i64 0, i64 %15, i64 %35, i64 2
  %53 = load i32, i32* %52, align 4, !tbaa !5
  %54 = add nsw i32 %51, %53
  %55 = getelementptr inbounds [5 x [11 x [11 x i32]]], [5 x [11 x [11 x i32]]]* %1, i64 0, i64 %15, i64 %36, i64 0
  %56 = load i32, i32* %55, align 4, !tbaa !5
  %57 = add nsw i32 %54, %56
  %58 = getelementptr inbounds [5 x [11 x [11 x i32]]], [5 x [11 x [11 x i32]]]* %1, i64 0, i64 %15, i64 %36, i64 1
  %59 = load i32, i32* %58, align 4, !tbaa !5
  %60 = add nsw i32 %57, %59
  %61 = getelementptr inbounds [5 x [11 x [11 x i32]]], [5 x [11 x [11 x i32]]]* %1, i64 0, i64 %15, i64 %36, i64 2
  %62 = load i32, i32* %61, align 4, !tbaa !5
  %63 = add nsw i32 %60, %62
  %64 = getelementptr inbounds [5 x [11 x [11 x i32]]], [5 x [11 x [11 x i32]]]* %1, i64 0, i64 %16, i64 %34, i64 1
  store i32 %63, i32* %64, align 4, !tbaa !5
  %65 = shl nsw i32 %44, 1
  %66 = add nsw i32 %65, %38
  %67 = getelementptr inbounds [5 x [11 x [11 x i32]]], [5 x [11 x [11 x i32]]]* %1, i64 0, i64 %15, i64 %34, i64 3
  %68 = load i32, i32* %67, align 4, !tbaa !5
  %69 = add nsw i32 %66, %68
  %70 = add nsw i32 %69, %50
  %71 = add nsw i32 %70, %53
  %72 = getelementptr inbounds [5 x [11 x [11 x i32]]], [5 x [11 x [11 x i32]]]* %1, i64 0, i64 %15, i64 %35, i64 3
  %73 = load i32, i32* %72, align 4, !tbaa !5
  %74 = add nsw i32 %71, %73
  %75 = add nsw i32 %74, %59
  %76 = add nsw i32 %75, %62
  %77 = getelementptr inbounds [5 x [11 x [11 x i32]]], [5 x [11 x [11 x i32]]]* %1, i64 0, i64 %15, i64 %36, i64 3
  %78 = load i32, i32* %77, align 4, !tbaa !5
  %79 = add nsw i32 %76, %78
  %80 = getelementptr inbounds [5 x [11 x [11 x i32]]], [5 x [11 x [11 x i32]]]* %1, i64 0, i64 %16, i64 %34, i64 2
  store i32 %79, i32* %80, align 4, !tbaa !5
  %81 = shl nsw i32 %68, 1
  %82 = add nsw i32 %81, %44
  %83 = getelementptr inbounds [5 x [11 x [11 x i32]]], [5 x [11 x [11 x i32]]]* %1, i64 0, i64 %15, i64 %34, i64 4
  %84 = load i32, i32* %83, align 4, !tbaa !5
  %85 = add nsw i32 %82, %84
  %86 = add nsw i32 %85, %53
  %87 = add nsw i32 %86, %73
  %88 = getelementptr inbounds [5 x [11 x [11 x i32]]], [5 x [11 x [11 x i32]]]* %1, i64 0, i64 %15, i64 %35, i64 4
  %89 = load i32, i32* %88, align 4, !tbaa !5
  %90 = add nsw i32 %87, %89
  %91 = add nsw i32 %90, %62
  %92 = add nsw i32 %91, %78
  %93 = getelementptr inbounds [5 x [11 x [11 x i32]]], [5 x [11 x [11 x i32]]]* %1, i64 0, i64 %15, i64 %36, i64 4
  %94 = load i32, i32* %93, align 4, !tbaa !5
  %95 = add nsw i32 %92, %94
  %96 = getelementptr inbounds [5 x [11 x [11 x i32]]], [5 x [11 x [11 x i32]]]* %1, i64 0, i64 %16, i64 %34, i64 3
  store i32 %95, i32* %96, align 4, !tbaa !5
  %97 = shl nsw i32 %84, 1
  %98 = add nsw i32 %97, %68
  %99 = getelementptr inbounds [5 x [11 x [11 x i32]]], [5 x [11 x [11 x i32]]]* %1, i64 0, i64 %15, i64 %34, i64 5
  %100 = add nsw i32 %98, %33
  %101 = add nsw i32 %100, %73
  %102 = add nsw i32 %101, %89
  %103 = add nsw i32 %102, %30
  %104 = add nsw i32 %103, %78
  %105 = add nsw i32 %104, %94
  %106 = getelementptr inbounds [5 x [11 x [11 x i32]]], [5 x [11 x [11 x i32]]]* %1, i64 0, i64 %15, i64 %36, i64 5
  %107 = load i32, i32* %106, align 4, !tbaa !5
  %108 = add nsw i32 %105, %107
  %109 = getelementptr inbounds [5 x [11 x [11 x i32]]], [5 x [11 x [11 x i32]]]* %1, i64 0, i64 %16, i64 %34, i64 4
  store i32 %108, i32* %109, align 4, !tbaa !5
  %110 = shl nsw i32 %33, 1
  %111 = add nsw i32 %110, %84
  %112 = getelementptr inbounds [5 x [11 x [11 x i32]]], [5 x [11 x [11 x i32]]]* %1, i64 0, i64 %15, i64 %34, i64 6
  %113 = add nsw i32 %111, %32
  %114 = add nsw i32 %113, %89
  %115 = add nsw i32 %114, %30
  %116 = getelementptr inbounds [5 x [11 x [11 x i32]]], [5 x [11 x [11 x i32]]]* %1, i64 0, i64 %15, i64 %35, i64 6
  %117 = add nsw i32 %115, %31
  %118 = add nsw i32 %117, %94
  %119 = add nsw i32 %118, %107
  %120 = getelementptr inbounds [5 x [11 x [11 x i32]]], [5 x [11 x [11 x i32]]]* %1, i64 0, i64 %15, i64 %36, i64 6
  %121 = load i32, i32* %120, align 4, !tbaa !5
  %122 = add nsw i32 %119, %121
  %123 = getelementptr inbounds [5 x [11 x [11 x i32]]], [5 x [11 x [11 x i32]]]* %1, i64 0, i64 %16, i64 %34, i64 5
  store i32 %122, i32* %123, align 4, !tbaa !5
  %124 = load i32, i32* %112, align 4, !tbaa !5
  %125 = shl nsw i32 %124, 1
  %126 = load i32, i32* %99, align 4, !tbaa !5
  %127 = add nsw i32 %125, %126
  %128 = getelementptr inbounds [5 x [11 x [11 x i32]]], [5 x [11 x [11 x i32]]]* %1, i64 0, i64 %15, i64 %34, i64 7
  %129 = load i32, i32* %128, align 4, !tbaa !5
  %130 = add nsw i32 %127, %129
  %131 = add nsw i32 %130, %30
  %132 = load i32, i32* %116, align 4, !tbaa !5
  %133 = add nsw i32 %131, %132
  %134 = getelementptr inbounds [5 x [11 x [11 x i32]]], [5 x [11 x [11 x i32]]]* %1, i64 0, i64 %15, i64 %35, i64 7
  %135 = load i32, i32* %134, align 4, !tbaa !5
  %136 = add nsw i32 %133, %135
  %137 = add nsw i32 %136, %107
  %138 = add nsw i32 %137, %121
  %139 = getelementptr inbounds [5 x [11 x [11 x i32]]], [5 x [11 x [11 x i32]]]* %1, i64 0, i64 %15, i64 %36, i64 7
  %140 = load i32, i32* %139, align 4, !tbaa !5
  %141 = add nsw i32 %138, %140
  %142 = getelementptr inbounds [5 x [11 x [11 x i32]]], [5 x [11 x [11 x i32]]]* %1, i64 0, i64 %16, i64 %34, i64 6
  store i32 %141, i32* %142, align 4, !tbaa !5
  %143 = shl nsw i32 %129, 1
  %144 = add nsw i32 %143, %124
  %145 = getelementptr inbounds [5 x [11 x [11 x i32]]], [5 x [11 x [11 x i32]]]* %1, i64 0, i64 %15, i64 %34, i64 8
  %146 = load i32, i32* %145, align 4, !tbaa !5
  %147 = add nsw i32 %144, %146
  %148 = add nsw i32 %147, %132
  %149 = add nsw i32 %148, %135
  %150 = getelementptr inbounds [5 x [11 x [11 x i32]]], [5 x [11 x [11 x i32]]]* %1, i64 0, i64 %15, i64 %35, i64 8
  %151 = load i32, i32* %150, align 4, !tbaa !5
  %152 = add nsw i32 %149, %151
  %153 = add nsw i32 %152, %121
  %154 = add nsw i32 %153, %140
  %155 = getelementptr inbounds [5 x [11 x [11 x i32]]], [5 x [11 x [11 x i32]]]* %1, i64 0, i64 %15, i64 %36, i64 8
  %156 = load i32, i32* %155, align 4, !tbaa !5
  %157 = add nsw i32 %154, %156
  %158 = getelementptr inbounds [5 x [11 x [11 x i32]]], [5 x [11 x [11 x i32]]]* %1, i64 0, i64 %16, i64 %34, i64 7
  store i32 %157, i32* %158, align 4, !tbaa !5
  %159 = shl nsw i32 %146, 1
  %160 = add nsw i32 %159, %129
  %161 = getelementptr inbounds [5 x [11 x [11 x i32]]], [5 x [11 x [11 x i32]]]* %1, i64 0, i64 %15, i64 %34, i64 9
  %162 = load i32, i32* %161, align 4, !tbaa !5
  %163 = add nsw i32 %160, %162
  %164 = add nsw i32 %163, %135
  %165 = add nsw i32 %164, %151
  %166 = getelementptr inbounds [5 x [11 x [11 x i32]]], [5 x [11 x [11 x i32]]]* %1, i64 0, i64 %15, i64 %35, i64 9
  %167 = load i32, i32* %166, align 4, !tbaa !5
  %168 = add nsw i32 %165, %167
  %169 = add nsw i32 %168, %140
  %170 = add nsw i32 %169, %156
  %171 = getelementptr inbounds [5 x [11 x [11 x i32]]], [5 x [11 x [11 x i32]]]* %1, i64 0, i64 %15, i64 %36, i64 9
  %172 = load i32, i32* %171, align 4, !tbaa !5
  %173 = add nsw i32 %170, %172
  %174 = getelementptr inbounds [5 x [11 x [11 x i32]]], [5 x [11 x [11 x i32]]]* %1, i64 0, i64 %16, i64 %34, i64 8
  store i32 %173, i32* %174, align 4, !tbaa !5
  %175 = shl nsw i32 %162, 1
  %176 = add nsw i32 %175, %146
  %177 = getelementptr inbounds [5 x [11 x [11 x i32]]], [5 x [11 x [11 x i32]]]* %1, i64 0, i64 %15, i64 %34, i64 10
  %178 = load i32, i32* %177, align 4, !tbaa !5
  %179 = add nsw i32 %176, %178
  %180 = add nsw i32 %179, %151
  %181 = add nsw i32 %180, %167
  %182 = getelementptr inbounds [5 x [11 x [11 x i32]]], [5 x [11 x [11 x i32]]]* %1, i64 0, i64 %15, i64 %35, i64 10
  %183 = load i32, i32* %182, align 4, !tbaa !5
  %184 = add nsw i32 %181, %183
  %185 = add nsw i32 %184, %156
  %186 = add nsw i32 %185, %172
  %187 = getelementptr inbounds [5 x [11 x [11 x i32]]], [5 x [11 x [11 x i32]]]* %1, i64 0, i64 %15, i64 %36, i64 10
  %188 = load i32, i32* %187, align 4, !tbaa !5
  %189 = add nsw i32 %186, %188
  %190 = getelementptr inbounds [5 x [11 x [11 x i32]]], [5 x [11 x [11 x i32]]]* %1, i64 0, i64 %16, i64 %34, i64 9
  store i32 %189, i32* %190, align 4, !tbaa !5
  %191 = icmp eq i64 %36, 10
  br i1 %191, label %192, label %29, !llvm.loop !9

192:                                              ; preds = %29
  %193 = icmp eq i64 %16, %13
  br i1 %193, label %25, label %14, !llvm.loop !11

194:                                              ; preds = %195
  call void @llvm.lifetime.end.p0i8(i64 4, i8* nonnull %6) #4
  call void @llvm.lifetime.end.p0i8(i64 4, i8* nonnull %5) #4
  call void @llvm.lifetime.end.p0i8(i64 2420, i8* nonnull %4) #4
  ret i32 0

195:                                              ; preds = %27, %195
  %196 = phi i64 [ 1, %27 ], [ %224, %195 ]
  %197 = getelementptr inbounds [5 x [11 x [11 x i32]]], [5 x [11 x [11 x i32]]]* %1, i64 0, i64 %28, i64 %196, i64 9
  %198 = getelementptr inbounds [5 x [11 x [11 x i32]]], [5 x [11 x [11 x i32]]]* %1, i64 0, i64 %28, i64 %196, i64 1
  %199 = load i32, i32* %198, align 4, !tbaa !5
  %200 = call i32 (i8*, ...) @printf(i8* nonnull dereferenceable(1) getelementptr inbounds ([4 x i8], [4 x i8]* @.str.2, i64 0, i64 0), i32 %199)
  %201 = getelementptr inbounds [5 x [11 x [11 x i32]]], [5 x [11 x [11 x i32]]]* %1, i64 0, i64 %28, i64 %196, i64 2
  %202 = load i32, i32* %201, align 4, !tbaa !5
  %203 = call i32 (i8*, ...) @printf(i8* nonnull dereferenceable(1) getelementptr inbounds ([4 x i8], [4 x i8]* @.str.2, i64 0, i64 0), i32 %202)
  %204 = getelementptr inbounds [5 x [11 x [11 x i32]]], [5 x [11 x [11 x i32]]]* %1, i64 0, i64 %28, i64 %196, i64 3
  %205 = load i32, i32* %204, align 4, !tbaa !5
  %206 = call i32 (i8*, ...) @printf(i8* nonnull dereferenceable(1) getelementptr inbounds ([4 x i8], [4 x i8]* @.str.2, i64 0, i64 0), i32 %205)
  %207 = getelementptr inbounds [5 x [11 x [11 x i32]]], [5 x [11 x [11 x i32]]]* %1, i64 0, i64 %28, i64 %196, i64 4
  %208 = load i32, i32* %207, align 4, !tbaa !5
  %209 = call i32 (i8*, ...) @printf(i8* nonnull dereferenceable(1) getelementptr inbounds ([4 x i8], [4 x i8]* @.str.2, i64 0, i64 0), i32 %208)
  %210 = getelementptr inbounds [5 x [11 x [11 x i32]]], [5 x [11 x [11 x i32]]]* %1, i64 0, i64 %28, i64 %196, i64 5
  %211 = load i32, i32* %210, align 4, !tbaa !5
  %212 = call i32 (i8*, ...) @printf(i8* nonnull dereferenceable(1) getelementptr inbounds ([4 x i8], [4 x i8]* @.str.2, i64 0, i64 0), i32 %211)
  %213 = getelementptr inbounds [5 x [11 x [11 x i32]]], [5 x [11 x [11 x i32]]]* %1, i64 0, i64 %28, i64 %196, i64 6
  %214 = load i32, i32* %213, align 4, !tbaa !5
  %215 = call i32 (i8*, ...) @printf(i8* nonnull dereferenceable(1) getelementptr inbounds ([4 x i8], [4 x i8]* @.str.2, i64 0, i64 0), i32 %214)
  %216 = getelementptr inbounds [5 x [11 x [11 x i32]]], [5 x [11 x [11 x i32]]]* %1, i64 0, i64 %28, i64 %196, i64 7
  %217 = load i32, i32* %216, align 4, !tbaa !5
  %218 = call i32 (i8*, ...) @printf(i8* nonnull dereferenceable(1) getelementptr inbounds ([4 x i8], [4 x i8]* @.str.2, i64 0, i64 0), i32 %217)
  %219 = getelementptr inbounds [5 x [11 x [11 x i32]]], [5 x [11 x [11 x i32]]]* %1, i64 0, i64 %28, i64 %196, i64 8
  %220 = load i32, i32* %219, align 4, !tbaa !5
  %221 = call i32 (i8*, ...) @printf(i8* nonnull dereferenceable(1) getelementptr inbounds ([4 x i8], [4 x i8]* @.str.2, i64 0, i64 0), i32 %220)
  %222 = load i32, i32* %197, align 4, !tbaa !5
  %223 = call i32 (i8*, ...) @printf(i8* nonnull dereferenceable(1) getelementptr inbounds ([4 x i8], [4 x i8]* @.str.1, i64 0, i64 0), i32 %222)
  %224 = add nuw nsw i64 %196, 1
  %225 = icmp eq i64 %224, 10
  br i1 %225, label %194, label %195, !llvm.loop !12
}